; Function Attrs: mustprogress uwtable
define hidden void @_ZN17asserted_formulas6commitEv(ptr noundef nonnull align 8 dereferenceable(7236) %0) local_unnamed_addr #3 align 2 {
  %2 = getelementptr inbounds nuw i8, ptr %0, i64 936
  %3 = load ptr, ptr %2, align 8, !tbaa !25
  %4 = icmp eq ptr %3, null
  br i1 %4, label %_ZNK6vectorI14justified_exprLb1EjE4sizeEv.exit, label %5

5:                                                ; preds = %1
  %6 = getelementptr inbounds i8, ptr %3, i64 -4
  %7 = load i32, ptr %6, align 4, !tbaa !385
  br label %_ZNK6vectorI14justified_exprLb1EjE4sizeEv.exit

_ZNK6vectorI14justified_exprLb1EjE4sizeEv.exit:   ; preds = %1, %5
  %.0.i = phi i32 [ %7, %5 ], [ 0, %1 ]
  %8 = getelementptr inbounds nuw i8, ptr %0, i64 952
  %9 = getelementptr inbounds nuw i8, ptr %0, i64 944
  %10 = load i32, ptr %9, align 8, !tbaa !28
  %11 = sub i32 %.0.i, %10
  %12 = zext i32 %10 to i64
  %13 = getelementptr inbounds nuw %class.justified_expr, ptr %3, i64 %12
  tail call void @_ZN13macro_manager14mark_forbiddenEjPK14justified_expr(ptr noundef nonnull align 8 dereferenceable(568) %8, i32 noundef %11, ptr noundef %13)
  %14 = load i32, ptr %9, align 8, !tbaa !28
  %15 = icmp ult i32 %14, %.0.i
  br i1 %15, label %.lr.ph.preheader.i, label %_ZN17asserted_formulas6commitEj.exit

.lr.ph.preheader.i:                               ; preds = %_ZNK6vectorI14justified_exprLb1EjE4sizeEv.exit
  %16 = zext i32 %14 to i64
  br label %.lr.ph.i

.lr.ph.i:                                         ; preds = %.lr.ph.i, %.lr.ph.preheader.i
  %indvars.iv.i = phi i64 [ %16, %.lr.ph.preheader.i ], [ %indvars.iv.next.i, %.lr.ph.i ]
  %17 = load ptr, ptr %2, align 8, !tbaa !25
  %18 = getelementptr inbounds nuw %class.justified_expr, ptr %17, i64 %indvars.iv.i
  %19 = getelementptr inbounds nuw i8, ptr %18, i64 8
  %20 = load ptr, ptr %19, align 8, !tbaa !444
  %21 = getelementptr inbounds nuw i8, ptr %18, i64 16
  %22 = load ptr, ptr %21, align 8, !tbaa !446
  %23 = tail call noundef zeroext i1 @_ZN17asserted_formulas19update_substitutionEP4exprP3app(ptr noundef nonnull align 8 dereferenceable(7236) %0, ptr noundef %20, ptr noundef %22)
  %indvars.iv.next.i = add nuw nsw i64 %indvars.iv.i, 1
  %lftr.wideiv.i = trunc i64 %indvars.iv.next.i to i32
  %exitcond.not.i = icmp eq i32 %.0.i, %lftr.wideiv.i
  br i1 %exitcond.not.i, label %_ZN17asserted_formulas6commitEj.exit, label %.lr.ph.i, !llvm.loop !469

_ZN17asserted_formulas6commitEj.exit:             ; preds = %.lr.ph.i, %_ZNK6vectorI14justified_exprLb1EjE4sizeEv.exit
  store i32 %.0.i, ptr %9, align 8, !tbaa !28
  ret void
}